; Function Attrs: nounwind uwtable
define internal ptr @tuple_iter(ptr noundef %0) #0 {
  %2 = getelementptr i8, ptr %0, i64 8
  %.val = load ptr, ptr %2, align 8, !tbaa !99
  %3 = getelementptr i8, ptr %.val, i64 168
  %.val12 = load i64, ptr %3, align 8, !tbaa !100
  %4 = and i64 %.val12, 67108864
  %.not = icmp eq i64 %4, 0
  br i1 %.not, label %5, label %6

5:                                                ; preds = %1
  tail call void @_PyErr_BadInternalCall(ptr noundef nonnull @.str, i32 noundef 1124) #9
  br label %49

6:                                                ; preds = %1
  %7 = tail call align 8 ptr @llvm.threadlocal.address.p0(ptr align 8 @_Py_tss_tstate)
  %8 = load ptr, ptr %7, align 8, !tbaa !4
  %9 = getelementptr inbounds nuw i8, ptr %8, i64 16
  %10 = load ptr, ptr %9, align 8, !tbaa !9
  %11 = getelementptr inbounds nuw i8, ptr %10, i64 11416
  %12 = load ptr, ptr %11, align 8, !tbaa !21
  %.not.i.i = icmp eq ptr %12, null
  br i1 %.not.i.i, label %17, label %_PyFreeList_Pop.exit

_PyFreeList_Pop.exit:                             ; preds = %6
  %13 = load ptr, ptr %12, align 8, !tbaa !23
  store ptr %13, ptr %11, align 8, !tbaa !21
  %14 = getelementptr inbounds nuw i8, ptr %10, i64 11424
  %15 = load i64, ptr %14, align 8, !tbaa !24
  %16 = add i64 %15, -1
  store i64 %16, ptr %14, align 8, !tbaa !24
  tail call void @_Py_NewReference(ptr noundef nonnull %12) #9
  br label %20

17:                                               ; preds = %6
  %18 = tail call ptr @_PyObject_GC_New(ptr noundef nonnull @PyTupleIter_Type) #9
  %19 = icmp eq ptr %18, null
  br i1 %19, label %49, label %20

20:                                               ; preds = %_PyFreeList_Pop.exit, %17
  %.0 = phi ptr [ %18, %17 ], [ %12, %_PyFreeList_Pop.exit ]
  %21 = getelementptr inbounds nuw i8, ptr %.0, i64 16
  store i64 0, ptr %21, align 8, !tbaa !125
  %22 = load i32, ptr %0, align 8, !tbaa !108
  %23 = icmp slt i32 %22, 0
  br i1 %23, label %_Py_NewRef.exit, label %24

24:                                               ; preds = %20
  %25 = add nuw i32 %22, 1
  store i32 %25, ptr %0, align 8, !tbaa !108
  br label %_Py_NewRef.exit

_Py_NewRef.exit:                                  ; preds = %20, %24
  %26 = getelementptr inbounds nuw i8, ptr %.0, i64 24
  store ptr %0, ptr %26, align 8, !tbaa !127
  %27 = getelementptr i8, ptr %.0, i64 -16
  %28 = load ptr, ptr %7, align 8, !tbaa !4
  %29 = getelementptr inbounds nuw i8, ptr %28, i64 16
  %30 = load ptr, ptr %29, align 8, !tbaa !9
  %31 = getelementptr inbounds nuw i8, ptr %30, i64 7424
  %32 = getelementptr inbounds nuw i8, ptr %30, i64 7432
  %33 = load i64, ptr %32, align 8, !tbaa !26
  %34 = inttoptr i64 %33 to ptr
  %35 = ptrtoint ptr %27 to i64
  %36 = load i64, ptr %34, align 8, !tbaa !28
  %37 = and i64 %36, 3
  %38 = or i64 %37, %35
  store i64 %38, ptr %34, align 8, !tbaa !28
  %39 = getelementptr i8, ptr %.0, i64 -8
  %40 = load i64, ptr %39, align 8, !tbaa !26
  %41 = and i64 %40, 3
  %42 = or i64 %41, %33
  store i64 %42, ptr %39, align 8, !tbaa !26
  %43 = getelementptr inbounds nuw i8, ptr %30, i64 7632
  %44 = load i32, ptr %43, align 8, !tbaa !29
  %45 = xor i32 %44, 1
  %46 = sext i32 %45 to i64
  %47 = ptrtoint ptr %31 to i64
  %48 = or i64 %46, %47
  store i64 %48, ptr %27, align 8, !tbaa !28
  store i64 %35, ptr %32, align 8, !tbaa !26
  br label %49

49:                                               ; preds = %_Py_NewRef.exit, %17, %5
  %.09 = phi ptr [ null, %5 ], [ %.0, %_Py_NewRef.exit ], [ null, %17 ]
  ret ptr %.09
}